target datalayout = "e-m:e-p270:32:32-p271:32:32-p272:64:64-i64:64-i128:128-f80:128-n8:16:32:64-S128"
target triple = "x86_64-pc-linux-gnu"

%struct.Ssw_Pars_t_ = type { i32, i32, i32, i32, i32, i32, i32, i32, i32, i32, i32, i32, i32, i32, i32, i32, i32, i32, i32, i32, i32, i32, i32, i32, i32, i32, i32, i32, i32, i32, i32, i32, i32, i32, i32, i32, i32, i32, i32, i32, ptr, ptr }
%struct.Ssw_Man_t_ = type { ptr, i32, ptr, ptr, ptr, ptr, i32, ptr, ptr, ptr, i32, i32, i32, i32, i32, i32, i32, i32, i32, i32, i32, ptr, i32, ptr, i32, i32, i32, i32, ptr, ptr, ptr, i32, ptr, i32, i32, ptr, ptr, ptr, i32, ptr, i32, i32, i32, i32, i32, i32, i32, i32, i32, i32, i32, i32, i32, i32, i32, i32, i32, i32, i32, i32, i32, i32, i64, i64, i64, i64, i64, i64, i64, i64, i64, i64 }
%struct.Aig_Man_t_ = type { ptr, ptr, ptr, ptr, ptr, ptr, ptr, %struct.Aig_Obj_t_, i32, i32, i32, i32, i32, i32, [7 x i32], i32, ptr, i32, ptr, i32, ptr, i32, i32, i32, ptr, i32, i32, i32, i32, i32, ptr, ptr, i32, ptr, ptr, i32, ptr, ptr, i32, i32, i32, ptr, ptr, ptr, ptr, ptr, ptr, ptr, ptr, ptr, ptr, ptr, ptr, ptr, ptr, i32, ptr, ptr, ptr, ptr, i32, i64, i64, i64, ptr, ptr }
%struct.Aig_Obj_t_ = type { %union.anon, ptr, ptr, i64, i32, i32, %union.anon.0 }
%union.anon = type { ptr }
%union.anon.0 = type { ptr }
%struct.Vec_Ptr_t_ = type { i32, i32, ptr }

; Function Attrs: nounwind uwtable
define internal void @Vec_PtrFree(ptr noundef %0) #0 {
  %2 = alloca ptr, align 8
  store ptr %0, ptr %2, align 8
  %3 = load ptr, ptr %2, align 8
  %4 = getelementptr inbounds %struct.Vec_Ptr_t_, ptr %3, i32 0, i32 2
  %5 = load ptr, ptr %4, align 8
  %6 = icmp ne ptr %5, null
  br i1 %6, label %7, label %13

7:                                                ; preds = %1
  %8 = load ptr, ptr %2, align 8
  %9 = getelementptr inbounds %struct.Vec_Ptr_t_, ptr %8, i32 0, i32 2
  %10 = load ptr, ptr %9, align 8
  call void @free(ptr noundef %10) #8
  %11 = load ptr, ptr %2, align 8
  %12 = getelementptr inbounds %struct.Vec_Ptr_t_, ptr %11, i32 0, i32 2
  store ptr null, ptr %12, align 8
  br label %14

13:                                               ; preds = %1
  br label %14

14:                                               ; preds = %13, %7
  %15 = load ptr, ptr %2, align 8
  %16 = icmp ne ptr %15, null
  br i1 %16, label %17, label %19

17:                                               ; preds = %14
  %18 = load ptr, ptr %2, align 8
  call void @free(ptr noundef %18) #8
  store ptr null, ptr %2, align 8
  br label %20

19:                                               ; preds = %14
  br label %20

20:                                               ; preds = %19, %17
  ret void
}

; Function Attrs: nounwind uwtable
define internal i32 @Aig_ManNodeNum(ptr noundef %0) #0 {
  %2 = alloca ptr, align 8
  store ptr %0, ptr %2, align 8
  %3 = load ptr, ptr %2, align 8
  %4 = getelementptr inbounds %struct.Aig_Man_t_, ptr %3, i32 0, i32 14
  %5 = getelementptr inbounds [7 x i32], ptr %4, i64 0, i64 5
  %6 = load i32, ptr %5, align 4
  %7 = load ptr, ptr %2, align 8
  %8 = getelementptr inbounds %struct.Aig_Man_t_, ptr %7, i32 0, i32 14
  %9 = getelementptr inbounds [7 x i32], ptr %8, i64 0, i64 6
  %10 = load i32, ptr %9, align 8
  %11 = add nsw i32 %6, %10
  ret i32 %11
}

; Function Attrs: nounwind uwtable
define internal i32 @Aig_ManCiNum(ptr noundef %0) #0 {
  %2 = alloca ptr, align 8
  store ptr %0, ptr %2, align 8
  %3 = load ptr, ptr %2, align 8
  %4 = getelementptr inbounds %struct.Aig_Man_t_, ptr %3, i32 0, i32 14
  %5 = getelementptr inbounds [7 x i32], ptr %4, i64 0, i64 2
  %6 = load i32, ptr %5, align 8
  ret i32 %6
}

; Function Attrs: nounwind uwtable
define internal i32 @Aig_ObjIsTravIdCurrent(ptr noundef %0, ptr noundef %1) #0 {
  %3 = alloca ptr, align 8
  %4 = alloca ptr, align 8
  store ptr %0, ptr %3, align 8
  store ptr %1, ptr %4, align 8
  %5 = load ptr, ptr %4, align 8
  %6 = getelementptr inbounds %struct.Aig_Obj_t_, ptr %5, i32 0, i32 4
  %7 = load i32, ptr %6, align 8
  %8 = load ptr, ptr %3, align 8
  %9 = getelementptr inbounds %struct.Aig_Man_t_, ptr %8, i32 0, i32 38
  %10 = load i32, ptr %9, align 8
  %11 = icmp eq i32 %7, %10
  %12 = zext i1 %11 to i32
  ret i32 %12
}

; Function Attrs: nounwind uwtable
define internal i32 @Aig_ObjIsNode(ptr noundef %0) #0 {
  %2 = alloca ptr, align 8
  store ptr %0, ptr %2, align 8
  %3 = load ptr, ptr %2, align 8
  %4 = getelementptr inbounds %struct.Aig_Obj_t_, ptr %3, i32 0, i32 3
  %5 = load i64, ptr %4, align 8
  %6 = and i64 %5, 7
  %7 = trunc i64 %6 to i32
  %8 = icmp eq i32 %7, 5
  br i1 %8, label %16, label %9

9:                                                ; preds = %1
  %10 = load ptr, ptr %2, align 8
  %11 = getelementptr inbounds %struct.Aig_Obj_t_, ptr %10, i32 0, i32 3
  %12 = load i64, ptr %11, align 8
  %13 = and i64 %12, 7
  %14 = trunc i64 %13 to i32
  %15 = icmp eq i32 %14, 6
  br label %16

16:                                               ; preds = %9, %1
  %17 = phi i1 [ true, %1 ], [ %15, %9 ]
  %18 = zext i1 %17 to i32
  ret i32 %18
}

; Function Attrs: nounwind uwtable
define internal i32 @Aig_ObjIsCi(ptr noundef %0) #0 {
  %2 = alloca ptr, align 8
  store ptr %0, ptr %2, align 8
  %3 = load ptr, ptr %2, align 8
  %4 = getelementptr inbounds %struct.Aig_Obj_t_, ptr %3, i32 0, i32 3
  %5 = load i64, ptr %4, align 8
  %6 = and i64 %5, 7
  %7 = trunc i64 %6 to i32
  %8 = icmp eq i32 %7, 2
  %9 = zext i1 %8 to i32
  ret i32 %9
}

; Function Attrs: nounwind uwtable
define internal ptr @Vec_PtrEntry(ptr noundef %0, i32 noundef %1) #0 {
  %3 = alloca ptr, align 8
  %4 = alloca i32, align 4
  store ptr %0, ptr %3, align 8
  store i32 %1, ptr %4, align 4
  %5 = load ptr, ptr %3, align 8
  %6 = getelementptr inbounds %struct.Vec_Ptr_t_, ptr %5, i32 0, i32 2
  %7 = load ptr, ptr %6, align 8
  %8 = load i32, ptr %4, align 4
  %9 = sext i32 %8 to i64
  %10 = getelementptr inbounds ptr, ptr %7, i64 %9
  %11 = load ptr, ptr %10, align 8
  ret ptr %11
}

; Function Attrs: nounwind uwtable
define internal i32 @Vec_PtrSize(ptr noundef %0) #0 {
  %2 = alloca ptr, align 8
  store ptr %0, ptr %2, align 8
  %3 = load ptr, ptr %2, align 8
  %4 = getelementptr inbounds %struct.Vec_Ptr_t_, ptr %3, i32 0, i32 1
  %5 = load i32, ptr %4, align 4
  ret i32 %5
}

; Function Attrs: nounwind uwtable
define internal i32 @Saig_ManConstrNum(ptr noundef %0) #0 {
  %2 = alloca ptr, align 8
  store ptr %0, ptr %2, align 8
  %3 = load ptr, ptr %2, align 8
  %4 = getelementptr inbounds %struct.Aig_Man_t_, ptr %3, i32 0, i32 12
  %5 = load i32, ptr %4, align 8
  ret i32 %5
}

; Function Attrs: nounwind uwtable
define internal i32 @Saig_ManPoNum(ptr noundef %0) #0 {
  %2 = alloca ptr, align 8
  store ptr %0, ptr %2, align 8
  %3 = load ptr, ptr %2, align 8
  %4 = getelementptr inbounds %struct.Aig_Man_t_, ptr %3, i32 0, i32 10
  %5 = load i32, ptr %4, align 8
  ret i32 %5
}

; Function Attrs: nounwind uwtable
define internal ptr @Vec_PtrArray(ptr noundef %0) #0 {
  %2 = alloca ptr, align 8
  store ptr %0, ptr %2, align 8
  %3 = load ptr, ptr %2, align 8
  %4 = getelementptr inbounds %struct.Vec_Ptr_t_, ptr %3, i32 0, i32 2
  %5 = load ptr, ptr %4, align 8
  ret ptr %5
}

; Function Attrs: nounwind uwtable
define void @Ssw_ManUpdateEquivs(ptr noundef %0, ptr noundef %1, i32 noundef %2) #0 {
  %4 = alloca ptr, align 8
  %5 = alloca ptr, align 8
  %6 = alloca i32, align 4
  %7 = alloca ptr, align 8
  %8 = alloca ptr, align 8
  %9 = alloca ptr, align 8
  %10 = alloca i32, align 4
  %11 = alloca i32, align 4
  %12 = alloca i32, align 4
  store ptr %0, ptr %4, align 8
  store ptr %1, ptr %5, align 8
  store i32 %2, ptr %6, align 4
  store i32 0, ptr %11, align 4
  store i32 0, ptr %12, align 4
  %13 = load ptr, ptr %5, align 8
  %14 = getelementptr inbounds %struct.Aig_Man_t_, ptr %13, i32 0, i32 3
  %15 = load ptr, ptr %14, align 8
  %16 = call ptr @Vec_PtrArray(ptr noundef %15)
  store ptr %16, ptr %8, align 8
  %17 = load ptr, ptr %5, align 8
  %18 = call i32 @Saig_ManPoNum(ptr noundef %17)
  %19 = load ptr, ptr %5, align 8
  %20 = call i32 @Saig_ManConstrNum(ptr noundef %19)
  %21 = sub nsw i32 %18, %20
  %22 = load ptr, ptr %8, align 8
  %23 = sext i32 %21 to i64
  %24 = getelementptr inbounds ptr, ptr %22, i64 %23
  store ptr %24, ptr %8, align 8
  %25 = load ptr, ptr %5, align 8
  %26 = load ptr, ptr %8, align 8
  %27 = load ptr, ptr %5, align 8
  %28 = call i32 @Saig_ManConstrNum(ptr noundef %27)
  %29 = call ptr @Aig_ManDfsNodes(ptr noundef %25, ptr noundef %26, i32 noundef %28)
  store ptr %29, ptr %7, align 8
  store i32 0, ptr %10, align 4
  br label %30

30:                                               ; preds = %111, %3
  %31 = load i32, ptr %10, align 4
  %32 = load ptr, ptr %5, align 8
  %33 = getelementptr inbounds %struct.Aig_Man_t_, ptr %32, i32 0, i32 4
  %34 = load ptr, ptr %33, align 8
  %35 = call i32 @Vec_PtrSize(ptr noundef %34)
  %36 = icmp slt i32 %31, %35
  br i1 %36, label %37, label %43

37:                                               ; preds = %30
  %38 = load ptr, ptr %5, align 8
  %39 = getelementptr inbounds %struct.Aig_Man_t_, ptr %38, i32 0, i32 4
  %40 = load ptr, ptr %39, align 8
  %41 = load i32, ptr %10, align 4
  %42 = call ptr @Vec_PtrEntry(ptr noundef %40, i32 noundef %41)
  store ptr %42, ptr %9, align 8
  br label %43

43:                                               ; preds = %37, %30
  %44 = phi i1 [ false, %30 ], [ true, %37 ]
  br i1 %44, label %45, label %114

45:                                               ; preds = %43
  %46 = load ptr, ptr %9, align 8
  %47 = icmp eq ptr %46, null
  br i1 %47, label %48, label %49

48:                                               ; preds = %45
  br label %110

49:                                               ; preds = %45
  %50 = load ptr, ptr %9, align 8
  %51 = call i32 @Aig_ObjIsCi(ptr noundef %50)
  %52 = icmp ne i32 %51, 0
  br i1 %52, label %58, label %53

53:                                               ; preds = %49
  %54 = load ptr, ptr %9, align 8
  %55 = call i32 @Aig_ObjIsNode(ptr noundef %54)
  %56 = icmp ne i32 %55, 0
  br i1 %56, label %58, label %57

57:                                               ; preds = %53
  br label %111

58:                                               ; preds = %53, %49
  %59 = load ptr, ptr %5, align 8
  %60 = getelementptr inbounds %struct.Aig_Man_t_, ptr %59, i32 0, i32 31
  %61 = load ptr, ptr %60, align 8
  %62 = load i32, ptr %10, align 4
  %63 = sext i32 %62 to i64
  %64 = getelementptr inbounds ptr, ptr %61, i64 %63
  %65 = load ptr, ptr %64, align 8
  %66 = icmp ne ptr %65, null
  br i1 %66, label %67, label %70

67:                                               ; preds = %58
  %68 = load i32, ptr %11, align 4
  %69 = add nsw i32 %68, 1
  store i32 %69, ptr %11, align 4
  br label %70

70:                                               ; preds = %67, %58
  %71 = load ptr, ptr %5, align 8
  %72 = load ptr, ptr %9, align 8
  %73 = call i32 @Aig_ObjIsTravIdCurrent(ptr noundef %71, ptr noundef %72)
  %74 = icmp ne i32 %73, 0
  br i1 %74, label %76, label %75

75:                                               ; preds = %70
  br label %111

76:                                               ; preds = %70
  %77 = load ptr, ptr %5, align 8
  %78 = getelementptr inbounds %struct.Aig_Man_t_, ptr %77, i32 0, i32 31
  %79 = load ptr, ptr %78, align 8
  %80 = load i32, ptr %10, align 4
  %81 = sext i32 %80 to i64
  %82 = getelementptr inbounds ptr, ptr %79, i64 %81
  %83 = load ptr, ptr %82, align 8
  %84 = icmp ne ptr %83, null
  br i1 %84, label %85, label %109

85:                                               ; preds = %76
  %86 = load ptr, ptr %4, align 8
  %87 = getelementptr inbounds %struct.Ssw_Man_t_, ptr %86, i32 0, i32 0
  %88 = load ptr, ptr %87, align 8
  %89 = getelementptr inbounds %struct.Ssw_Pars_t_, ptr %88, i32 0, i32 5
  %90 = load i32, ptr %89, align 4
  %91 = icmp ne i32 %90, 0
  br i1 %91, label %92, label %108

92:                                               ; preds = %85
  %93 = load ptr, ptr %4, align 8
  %94 = getelementptr inbounds %struct.Ssw_Man_t_, ptr %93, i32 0, i32 0
  %95 = load ptr, ptr %94, align 8
  %96 = getelementptr inbounds %struct.Ssw_Pars_t_, ptr %95, i32 0, i32 6
  %97 = load i32, ptr %96, align 8
  %98 = icmp ne i32 %97, 0
  br i1 %98, label %108, label %99

99:                                               ; preds = %92
  %100 = load ptr, ptr %5, align 8
  %101 = getelementptr inbounds %struct.Aig_Man_t_, ptr %100, i32 0, i32 31
  %102 = load ptr, ptr %101, align 8
  %103 = load i32, ptr %10, align 4
  %104 = sext i32 %103 to i64
  %105 = getelementptr inbounds ptr, ptr %102, i64 %104
  store ptr null, ptr %105, align 8
  %106 = load i32, ptr %12, align 4
  %107 = add nsw i32 %106, 1
  store i32 %107, ptr %12, align 4
  br label %108

108:                                              ; preds = %99, %92, %85
  br label %109

109:                                              ; preds = %108, %76
  br label %110

110:                                              ; preds = %109, %48
  br label %111

111:                                              ; preds = %110, %75, %57
  %112 = load i32, ptr %10, align 4
  %113 = add nsw i32 %112, 1
  store i32 %113, ptr %10, align 4
  br label %30, !llvm.loop !6

114:                                              ; preds = %43
  %115 = load ptr, ptr %5, align 8
  %116 = call i32 @Aig_ManCiNum(ptr noundef %115)
  %117 = load ptr, ptr %5, align 8
  %118 = call i32 @Aig_ManNodeNum(ptr noundef %117)
  %119 = add nsw i32 %116, %118
  %120 = load ptr, ptr %4, align 8
  %121 = getelementptr inbounds %struct.Ssw_Man_t_, ptr %120, i32 0, i32 54
  store i32 %119, ptr %121, align 8
  %122 = load ptr, ptr %7, align 8
  %123 = call i32 @Vec_PtrSize(ptr noundef %122)
  %124 = load ptr, ptr %4, align 8
  %125 = getelementptr inbounds %struct.Ssw_Man_t_, ptr %124, i32 0, i32 55
  store i32 %123, ptr %125, align 4
  %126 = load i32, ptr %11, align 4
  %127 = load ptr, ptr %4, align 8
  %128 = getelementptr inbounds %struct.Ssw_Man_t_, ptr %127, i32 0, i32 56
  store i32 %126, ptr %128, align 8
  %129 = load i32, ptr %12, align 4
  %130 = load ptr, ptr %4, align 8
  %131 = getelementptr inbounds %struct.Ssw_Man_t_, ptr %130, i32 0, i32 57
  store i32 %129, ptr %131, align 4
  %132 = load ptr, ptr %7, align 8
  call void @Vec_PtrFree(ptr noundef %132)
  ret void
}