; Function Attrs: nounwind uwtable
define void @Ssw_ManUpdateEquivs(ptr noundef captures(none) %0, ptr noundef %1, i32 %2) local_unnamed_addr #2 {
  %4 = getelementptr inbounds nuw i8, ptr %1, i64 24
  %5 = load ptr, ptr %4, align 8
  %6 = getelementptr i8, ptr %5, i64 8
  %.val51 = load ptr, ptr %6, align 8
  %7 = getelementptr i8, ptr %1, i64 112
  %.val47 = load i32, ptr %7, align 8
  %8 = getelementptr i8, ptr %1, i64 120
  %.val50 = load i32, ptr %8, align 8
  %9 = sub nsw i32 %.val47, %.val50
  %10 = sext i32 %9 to i64
  %11 = getelementptr inbounds ptr, ptr %.val51, i64 %10
  %12 = tail call ptr @Aig_ManDfsNodes(ptr noundef %1, ptr noundef %11, i32 noundef %.val50) #13
  %13 = getelementptr inbounds nuw i8, ptr %1, i64 32
  %14 = load ptr, ptr %13, align 8
  %15 = getelementptr i8, ptr %14, i64 4
  %.val5259 = load i32, ptr %15, align 4
  %16 = icmp sgt i32 %.val5259, 0
  br i1 %16, label %.lr.ph, label %.critedge

.lr.ph:                                           ; preds = %3
  %17 = getelementptr inbounds nuw i8, ptr %1, i64 256
  %18 = getelementptr i8, ptr %1, i64 312
  br label %19

19:                                               ; preds = %.lr.ph, %48
  %20 = phi ptr [ %14, %.lr.ph ], [ %49, %48 ]
  %indvars.iv = phi i64 [ 0, %.lr.ph ], [ %indvars.iv.next, %48 ]
  %.062 = phi i32 [ 0, %.lr.ph ], [ %.1, %48 ]
  %.03661 = phi i32 [ 0, %.lr.ph ], [ %.137, %48 ]
  %21 = getelementptr i8, ptr %20, i64 8
  %.val48 = load ptr, ptr %21, align 8
  %22 = getelementptr inbounds nuw ptr, ptr %.val48, i64 %indvars.iv
  %23 = load ptr, ptr %22, align 8
  %24 = icmp eq ptr %23, null
  br i1 %24, label %48, label %25

25:                                               ; preds = %19
  %26 = getelementptr i8, ptr %23, i64 24
  %.val54 = load i64, ptr %26, align 8
  %27 = and i64 %.val54, 7
  %.not = icmp eq i64 %27, 2
  br i1 %.not, label %32, label %28

28:                                               ; preds = %25
  %29 = trunc i64 %.val54 to i32
  %30 = and i32 %29, 7
  %31 = add nsw i32 %30, -7
  %narrow.i = icmp ult i32 %31, -2
  br i1 %narrow.i, label %48, label %32

32:                                               ; preds = %28, %25
  %33 = load ptr, ptr %17, align 8
  %34 = getelementptr inbounds nuw ptr, ptr %33, i64 %indvars.iv
  %35 = load ptr, ptr %34, align 8
  %.not41 = icmp eq ptr %35, null
  %36 = add nsw i32 %.03661, 1
  %spec.select = select i1 %.not41, i32 %.03661, i32 %36
  %.val56 = load i32, ptr %18, align 8
  %37 = getelementptr i8, ptr %23, i64 32
  %.val57 = load i32, ptr %37, align 8
  %38 = icmp ne i32 %.val57, %.val56
  %brmerge = select i1 %38, i1 true, i1 %.not41
  %spec.select.mux = select i1 %38, i32 %spec.select, i32 %.03661
  br i1 %brmerge, label %48, label %39

39:                                               ; preds = %32
  %40 = load ptr, ptr %0, align 8
  %41 = getelementptr inbounds nuw i8, ptr %40, i64 20
  %42 = load i32, ptr %41, align 4
  %.not44 = icmp eq i32 %42, 0
  br i1 %.not44, label %48, label %43

43:                                               ; preds = %39
  %44 = getelementptr inbounds nuw i8, ptr %40, i64 24
  %45 = load i32, ptr %44, align 8
  %.not45 = icmp eq i32 %45, 0
  br i1 %.not45, label %46, label %48

46:                                               ; preds = %43
  store ptr null, ptr %34, align 8
  %47 = add nsw i32 %.062, 1
  %.pre = load ptr, ptr %13, align 8
  br label %48

48:                                               ; preds = %32, %19, %39, %43, %46, %28
  %49 = phi ptr [ %20, %19 ], [ %20, %43 ], [ %.pre, %46 ], [ %20, %39 ], [ %20, %32 ], [ %20, %28 ]
  %.137 = phi i32 [ %.03661, %19 ], [ %36, %43 ], [ %36, %46 ], [ %36, %39 ], [ %spec.select.mux, %32 ], [ %.03661, %28 ]
  %.1 = phi i32 [ %.062, %19 ], [ %.062, %43 ], [ %47, %46 ], [ %.062, %39 ], [ %.062, %32 ], [ %.062, %28 ]
  %indvars.iv.next = add nuw nsw i64 %indvars.iv, 1
  %50 = getelementptr i8, ptr %49, i64 4
  %.val52 = load i32, ptr %50, align 4
  %51 = sext i32 %.val52 to i64
  %52 = icmp slt i64 %indvars.iv.next, %51
  br i1 %52, label %19, label %.critedge, !llvm.loop !6

.critedge:                                        ; preds = %48, %3
  %.036.lcssa = phi i32 [ 0, %3 ], [ %.137, %48 ]
  %.0.lcssa = phi i32 [ 0, %3 ], [ %.1, %48 ]
  %53 = getelementptr i8, ptr %1, i64 136
  %.val58 = load i32, ptr %53, align 8
  %54 = getelementptr i8, ptr %1, i64 148
  %.val = load i32, ptr %54, align 4
  %55 = getelementptr i8, ptr %1, i64 152
  %.val46 = load i32, ptr %55, align 8
  %56 = add i32 %.val, %.val58
  %57 = add i32 %56, %.val46
  %58 = getelementptr inbounds nuw i8, ptr %0, i64 312
  store i32 %57, ptr %58, align 8
  %59 = getelementptr i8, ptr %12, i64 4
  %.val53 = load i32, ptr %59, align 4
  %60 = getelementptr inbounds nuw i8, ptr %0, i64 316
  store i32 %.val53, ptr %60, align 4
  %61 = getelementptr inbounds nuw i8, ptr %0, i64 320
  store i32 %.036.lcssa, ptr %61, align 8
  %62 = getelementptr inbounds nuw i8, ptr %0, i64 324
  store i32 %.0.lcssa, ptr %62, align 4
  %63 = getelementptr inbounds nuw i8, ptr %12, i64 8
  %64 = load ptr, ptr %63, align 8
  %.not.i = icmp eq ptr %64, null
  br i1 %.not.i, label %Vec_PtrFree.exit, label %65

65:                                               ; preds = %.critedge
  tail call void @free(ptr noundef nonnull %64) #13
  br label %Vec_PtrFree.exit

Vec_PtrFree.exit:                                 ; preds = %.critedge, %65
  tail call void @free(ptr noundef nonnull %12) #13
  ret void
}